target datalayout = "e-m:e-p270:32:32-p271:32:32-p272:64:64-i64:64-i128:128-f80:128-n8:16:32:64-S128"
target triple = "x86_64-pc-linux-gnu"

%struct.CallReply = type { ptr, ptr, ptr, i64, i32, i32, i64, %union.anon, ptr, ptr }
%union.anon = type { %struct.anon }
%struct.anon = type { ptr, ptr }

; Function Attrs: nounwind uwtable
define dso_local void @freeCallReply(ptr noundef %0) #0 {
  %2 = alloca ptr, align 8
  store ptr %0, ptr %2, align 8, !tbaa !5
  %3 = load ptr, ptr %2, align 8, !tbaa !5
  %4 = getelementptr inbounds nuw %struct.CallReply, ptr %3, i32 0, i32 5
  %5 = load i32, ptr %4, align 4, !tbaa !10
  %6 = and i32 %5, 1
  %7 = icmp ne i32 %6, 0
  br i1 %7, label %9, label %8

8:                                                ; preds = %1
  br label %38

9:                                                ; preds = %1
  %10 = load ptr, ptr %2, align 8, !tbaa !5
  %11 = getelementptr inbounds nuw %struct.CallReply, ptr %10, i32 0, i32 5
  %12 = load i32, ptr %11, align 4, !tbaa !10
  %13 = and i32 %12, 2
  %14 = icmp ne i32 %13, 0
  br i1 %14, label %15, label %24

15:                                               ; preds = %9
  %16 = load ptr, ptr %2, align 8, !tbaa !5
  %17 = getelementptr inbounds nuw %struct.CallReply, ptr %16, i32 0, i32 4
  %18 = load i32, ptr %17, align 8, !tbaa !16
  %19 = icmp eq i32 %18, 12
  br i1 %19, label %20, label %22

20:                                               ; preds = %15
  %21 = load ptr, ptr %2, align 8, !tbaa !5
  call void @zfree(ptr noundef %21)
  br label %38

22:                                               ; preds = %15
  %23 = load ptr, ptr %2, align 8, !tbaa !5
  call void @freeCallReplyInternal(ptr noundef %23)
  br label %24

24:                                               ; preds = %22, %9
  %25 = load ptr, ptr %2, align 8, !tbaa !5
  %26 = getelementptr inbounds nuw %struct.CallReply, ptr %25, i32 0, i32 1
  %27 = load ptr, ptr %26, align 8, !tbaa !17
  call void @sdsfree(ptr noundef %27)
  %28 = load ptr, ptr %2, align 8, !tbaa !5
  %29 = getelementptr inbounds nuw %struct.CallReply, ptr %28, i32 0, i32 8
  %30 = load ptr, ptr %29, align 8, !tbaa !18
  %31 = icmp ne ptr %30, null
  br i1 %31, label %32, label %36

32:                                               ; preds = %24
  %33 = load ptr, ptr %2, align 8, !tbaa !5
  %34 = getelementptr inbounds nuw %struct.CallReply, ptr %33, i32 0, i32 8
  %35 = load ptr, ptr %34, align 8, !tbaa !18
  call void @listRelease(ptr noundef %35)
  br label %36

36:                                               ; preds = %32, %24
  %37 = load ptr, ptr %2, align 8, !tbaa !5
  call void @zfree(ptr noundef %37)
  br label %38

38:                                               ; preds = %36, %20, %8
  ret void
}