; Function Attrs: nounwind uwtable
define dso_local void @freeCallReply(ptr noundef %0) local_unnamed_addr #0 {
  %2 = getelementptr inbounds nuw i8, ptr %0, i64 36
  %3 = load i32, ptr %2, align 4, !tbaa !5
  %4 = and i32 %3, 1
  %.not = icmp eq i32 %4, 0
  br i1 %.not, label %18, label %5

5:                                                ; preds = %1
  %6 = and i32 %3, 2
  %.not9 = icmp eq i32 %6, 0
  br i1 %.not9, label %12, label %7

7:                                                ; preds = %5
  %8 = getelementptr inbounds nuw i8, ptr %0, i64 32
  %9 = load i32, ptr %8, align 8, !tbaa !15
  %10 = icmp eq i32 %9, 12
  br i1 %10, label %.sink.split, label %11

11:                                               ; preds = %7
  tail call fastcc void @freeCallReplyInternal(ptr noundef nonnull %0)
  br label %12

12:                                               ; preds = %11, %5
  %13 = getelementptr inbounds nuw i8, ptr %0, i64 8
  %14 = load ptr, ptr %13, align 8, !tbaa !16
  tail call void @sdsfree(ptr noundef %14) #8
  %15 = getelementptr inbounds nuw i8, ptr %0, i64 64
  %16 = load ptr, ptr %15, align 8, !tbaa !17
  %.not10 = icmp eq ptr %16, null
  br i1 %.not10, label %.sink.split, label %17

17:                                               ; preds = %12
  tail call void @listRelease(ptr noundef nonnull %16) #8
  br label %.sink.split

.sink.split:                                      ; preds = %12, %17, %7
  tail call void @zfree(ptr noundef nonnull %0) #8
  br label %18

18:                                               ; preds = %.sink.split, %1
  ret void
}